; Function Attrs: nounwind uwtable
define range(i32 2, 1) i32 @Dau_Dsd6DecomposeSingleVar(ptr noundef captures(none) %0, ptr noundef %1, ptr noundef captures(none) %2, i32 noundef %3) local_unnamed_addr #3 {
  %5 = alloca %struct.timespec, align 8
  %6 = alloca %struct.timespec, align 8
  call void @llvm.lifetime.start.p0(i64 16, ptr nonnull %6) #29
  %7 = call i32 @clock_gettime(i32 noundef 1, ptr noundef nonnull %6) #29
  %8 = icmp slt i32 %7, 0
  br i1 %8, label %Abc_Clock.exit, label %9

9:                                                ; preds = %4
  %10 = load i64, ptr %6, align 8, !tbaa !89
  %.neg24 = mul i64 %10, -1000000
  %11 = getelementptr inbounds nuw i8, ptr %6, i64 8
  %12 = load i64, ptr %11, align 8, !tbaa !91
  %.neg = sdiv i64 %12, -1000
  %.neg25 = add i64 %.neg, %.neg24
  br label %Abc_Clock.exit

Abc_Clock.exit:                                   ; preds = %4, %9
  %.0.i.neg = phi i64 [ %.neg25, %9 ], [ 1, %4 ]
  call void @llvm.lifetime.end.p0(i64 16, ptr nonnull %6) #29
  br label %13

13:                                               ; preds = %.loopexit, %Abc_Clock.exit
  %.021 = phi i32 [ %3, %Abc_Clock.exit ], [ %.1, %.loopexit ]
  %14 = icmp sgt i32 %.021, 1
  br i1 %14, label %.split, label %.loopexit

.split:                                           ; preds = %13, %16
  %.020.in = phi i32 [ %.020, %16 ], [ %.021, %13 ]
  %15 = icmp sgt i32 %.020.in, 0
  br i1 %15, label %16, label %.loopexit.thread

16:                                               ; preds = %.split
  %.020 = add nsw i32 %.020.in, -1
  %17 = call fastcc i32 @Dau_Dsd6DecomposeSingleVarOne(ptr noundef %0, ptr noundef %1, ptr noundef %2, i32 noundef %.021, i32 noundef %.020)
  %.not = icmp eq i32 %17, 0
  br i1 %.not, label %.split, label %18, !llvm.loop !92

18:                                               ; preds = %16
  %19 = add nsw i32 %.021, -1
  br label %.loopexit

.loopexit:                                        ; preds = %13, %18
  %.020.in27 = phi i32 [ 1, %18 ], [ %.021, %13 ]
  %.1 = phi i32 [ %19, %18 ], [ %.021, %13 ]
  %20 = icmp eq i32 %.020.in27, 0
  %21 = icmp eq i32 %.1, 1
  %or.cond = select i1 %20, i1 true, i1 %21
  br i1 %or.cond, label %22, label %13

22:                                               ; preds = %.loopexit
  br i1 %21, label %23, label %.loopexit.thread

23:                                               ; preds = %22
  %24 = load i32, ptr %2, align 4, !tbaa !6
  %25 = load i64, ptr %1, align 8, !tbaa !29
  %26 = trunc i64 %25 to i32
  %27 = and i32 %26, 1
  call fastcc void @Dau_DsdWriteVar(ptr noundef %0, i32 noundef %24, i32 noundef %27)
  br label %.loopexit.thread

.loopexit.thread:                                 ; preds = %.split, %23, %22
  %.2 = phi i32 [ 0, %23 ], [ %.1, %22 ], [ %.021, %.split ]
  call void @llvm.lifetime.start.p0(i64 16, ptr nonnull %5) #29
  %28 = call i32 @clock_gettime(i32 noundef 1, ptr noundef nonnull %5) #29
  %29 = icmp slt i32 %28, 0
  br i1 %29, label %Abc_Clock.exit23, label %30

30:                                               ; preds = %.loopexit.thread
  %31 = load i64, ptr %5, align 8, !tbaa !89
  %32 = mul nsw i64 %31, 1000000
  %33 = getelementptr inbounds nuw i8, ptr %5, i64 8
  %34 = load i64, ptr %33, align 8, !tbaa !91
  %35 = sdiv i64 %34, 1000
  %36 = add nsw i64 %35, %32
  br label %Abc_Clock.exit23

Abc_Clock.exit23:                                 ; preds = %.loopexit.thread, %30
  %.0.i22 = phi i64 [ %36, %30 ], [ -1, %.loopexit.thread ]
  call void @llvm.lifetime.end.p0(i64 16, ptr nonnull %5) #29
  %37 = add i64 %.0.i22, %.0.i.neg
  %38 = load i64, ptr @s_Times.0, align 16, !tbaa !29
  %39 = add nsw i64 %37, %38
  store i64 %39, ptr @s_Times.0, align 16, !tbaa !29
  ret i32 %.2
}